
blink-c3.elf:     file format elf32-littlearm


Disassembly of section .text:

08000000 <hang-0x44>:
 8000000:	20004fff 	strdcs	r4, [r0], -pc	@ <UNPREDICTABLE>
 8000004:	08000291 	stmdaeq	r0, {r0, r4, r7, r9}
 8000008:	08000044 	stmdaeq	r0, {r2, r6}
 800000c:	08000044 	stmdaeq	r0, {r2, r6}
 8000010:	08000044 	stmdaeq	r0, {r2, r6}
 8000014:	08000044 	stmdaeq	r0, {r2, r6}
 8000018:	08000044 	stmdaeq	r0, {r2, r6}
 800001c:	afffac17 	svcge	0x00ffac17
 8000020:	08000044 	stmdaeq	r0, {r2, r6}
 8000024:	08000044 	stmdaeq	r0, {r2, r6}
 8000028:	08000044 	stmdaeq	r0, {r2, r6}
 800002c:	08000044 	stmdaeq	r0, {r2, r6}
 8000030:	08000044 	stmdaeq	r0, {r2, r6}
 8000034:	08000044 	stmdaeq	r0, {r2, r6}
 8000038:	08000044 	stmdaeq	r0, {r2, r6}
 800003c:	08000044 	stmdaeq	r0, {r2, r6}
 8000040:	08000044 	stmdaeq	r0, {r2, r6}

08000044 <hang>:
 8000044:	e7fe      	b.n	8000044 <hang>
	...

08000048 <enable_hse>:
 8000048:	b480      	push	{r7}
 800004a:	af00      	add	r7, sp, #0
 800004c:	4b08      	ldr	r3, [pc, #32]	@ (8000070 <enable_hse+0x28>)
 800004e:	681b      	ldr	r3, [r3, #0]
 8000050:	4a07      	ldr	r2, [pc, #28]	@ (8000070 <enable_hse+0x28>)
 8000052:	f443 3380 	orr.w	r3, r3, #65536	@ 0x10000
 8000056:	6013      	str	r3, [r2, #0]
 8000058:	bf00      	nop
 800005a:	4b05      	ldr	r3, [pc, #20]	@ (8000070 <enable_hse+0x28>)
 800005c:	681b      	ldr	r3, [r3, #0]
 800005e:	f403 3300 	and.w	r3, r3, #131072	@ 0x20000
 8000062:	2b00      	cmp	r3, #0
 8000064:	d0f9      	beq.n	800005a <enable_hse+0x12>
 8000066:	bf00      	nop
 8000068:	bf00      	nop
 800006a:	46bd      	mov	sp, r7
 800006c:	bc80      	pop	{r7}
 800006e:	4770      	bx	lr
 8000070:	40021000 	andmi	r1, r2, r0

08000074 <enable_pll>:
 8000074:	b480      	push	{r7}
 8000076:	af00      	add	r7, sp, #0
 8000078:	4b0b      	ldr	r3, [pc, #44]	@ (80000a8 <enable_pll+0x34>)
 800007a:	681b      	ldr	r3, [r3, #0]
 800007c:	4a0a      	ldr	r2, [pc, #40]	@ (80000a8 <enable_pll+0x34>)
 800007e:	f423 2380 	bic.w	r3, r3, #262144	@ 0x40000
 8000082:	6013      	str	r3, [r2, #0]
 8000084:	4b08      	ldr	r3, [pc, #32]	@ (80000a8 <enable_pll+0x34>)
 8000086:	681b      	ldr	r3, [r3, #0]
 8000088:	4a07      	ldr	r2, [pc, #28]	@ (80000a8 <enable_pll+0x34>)
 800008a:	f043 7380 	orr.w	r3, r3, #16777216	@ 0x1000000
 800008e:	6013      	str	r3, [r2, #0]
 8000090:	bf00      	nop
 8000092:	4b05      	ldr	r3, [pc, #20]	@ (80000a8 <enable_pll+0x34>)
 8000094:	681b      	ldr	r3, [r3, #0]
 8000096:	f003 7300 	and.w	r3, r3, #33554432	@ 0x2000000
 800009a:	2b00      	cmp	r3, #0
 800009c:	d0f9      	beq.n	8000092 <enable_pll+0x1e>
 800009e:	bf00      	nop
 80000a0:	bf00      	nop
 80000a2:	46bd      	mov	sp, r7
 80000a4:	bc80      	pop	{r7}
 80000a6:	4770      	bx	lr
 80000a8:	40021000 	andmi	r1, r2, r0

080000ac <config_pll_with_hse_72mhz>:
 80000ac:	b480      	push	{r7}
 80000ae:	af00      	add	r7, sp, #0
 80000b0:	4b12      	ldr	r3, [pc, #72]	@ (80000fc <config_pll_with_hse_72mhz+0x50>)
 80000b2:	685b      	ldr	r3, [r3, #4]
 80000b4:	4a11      	ldr	r2, [pc, #68]	@ (80000fc <config_pll_with_hse_72mhz+0x50>)
 80000b6:	f423 3300 	bic.w	r3, r3, #131072	@ 0x20000
 80000ba:	6053      	str	r3, [r2, #4]
 80000bc:	4b0f      	ldr	r3, [pc, #60]	@ (80000fc <config_pll_with_hse_72mhz+0x50>)
 80000be:	4a0f      	ldr	r2, [pc, #60]	@ (80000fc <config_pll_with_hse_72mhz+0x50>)
 80000c0:	685b      	ldr	r3, [r3, #4]
 80000c2:	6053      	str	r3, [r2, #4]
 80000c4:	4b0d      	ldr	r3, [pc, #52]	@ (80000fc <config_pll_with_hse_72mhz+0x50>)
 80000c6:	685b      	ldr	r3, [r3, #4]
 80000c8:	4a0c      	ldr	r2, [pc, #48]	@ (80000fc <config_pll_with_hse_72mhz+0x50>)
 80000ca:	f423 1370 	bic.w	r3, r3, #3932160	@ 0x3c0000
 80000ce:	6053      	str	r3, [r2, #4]
 80000d0:	4b0a      	ldr	r3, [pc, #40]	@ (80000fc <config_pll_with_hse_72mhz+0x50>)
 80000d2:	685b      	ldr	r3, [r3, #4]
 80000d4:	4a09      	ldr	r2, [pc, #36]	@ (80000fc <config_pll_with_hse_72mhz+0x50>)
 80000d6:	f443 13e0 	orr.w	r3, r3, #1835008	@ 0x1c0000
 80000da:	6053      	str	r3, [r2, #4]
 80000dc:	4b07      	ldr	r3, [pc, #28]	@ (80000fc <config_pll_with_hse_72mhz+0x50>)
 80000de:	685b      	ldr	r3, [r3, #4]
 80000e0:	4a06      	ldr	r2, [pc, #24]	@ (80000fc <config_pll_with_hse_72mhz+0x50>)
 80000e2:	f423 3380 	bic.w	r3, r3, #65536	@ 0x10000
 80000e6:	6053      	str	r3, [r2, #4]
 80000e8:	4b04      	ldr	r3, [pc, #16]	@ (80000fc <config_pll_with_hse_72mhz+0x50>)
 80000ea:	685b      	ldr	r3, [r3, #4]
 80000ec:	4a03      	ldr	r2, [pc, #12]	@ (80000fc <config_pll_with_hse_72mhz+0x50>)
 80000ee:	f443 3380 	orr.w	r3, r3, #65536	@ 0x10000
 80000f2:	6053      	str	r3, [r2, #4]
 80000f4:	bf00      	nop
 80000f6:	46bd      	mov	sp, r7
 80000f8:	bc80      	pop	{r7}
 80000fa:	4770      	bx	lr
 80000fc:	40021000 	andmi	r1, r2, r0

08000100 <config_bus_clock>:
 8000100:	b480      	push	{r7}
 8000102:	af00      	add	r7, sp, #0
 8000104:	4b11      	ldr	r3, [pc, #68]	@ (800014c <config_bus_clock+0x4c>)
 8000106:	685b      	ldr	r3, [r3, #4]
 8000108:	4a10      	ldr	r2, [pc, #64]	@ (800014c <config_bus_clock+0x4c>)
 800010a:	f023 03f0 	bic.w	r3, r3, #240	@ 0xf0
 800010e:	6053      	str	r3, [r2, #4]
 8000110:	4b0e      	ldr	r3, [pc, #56]	@ (800014c <config_bus_clock+0x4c>)
 8000112:	4a0e      	ldr	r2, [pc, #56]	@ (800014c <config_bus_clock+0x4c>)
 8000114:	685b      	ldr	r3, [r3, #4]
 8000116:	6053      	str	r3, [r2, #4]
 8000118:	4b0c      	ldr	r3, [pc, #48]	@ (800014c <config_bus_clock+0x4c>)
 800011a:	685b      	ldr	r3, [r3, #4]
 800011c:	4a0b      	ldr	r2, [pc, #44]	@ (800014c <config_bus_clock+0x4c>)
 800011e:	f423 63e0 	bic.w	r3, r3, #1792	@ 0x700
 8000122:	6053      	str	r3, [r2, #4]
 8000124:	4b09      	ldr	r3, [pc, #36]	@ (800014c <config_bus_clock+0x4c>)
 8000126:	685b      	ldr	r3, [r3, #4]
 8000128:	4a08      	ldr	r2, [pc, #32]	@ (800014c <config_bus_clock+0x4c>)
 800012a:	f443 6380 	orr.w	r3, r3, #1024	@ 0x400
 800012e:	6053      	str	r3, [r2, #4]
 8000130:	4b06      	ldr	r3, [pc, #24]	@ (800014c <config_bus_clock+0x4c>)
 8000132:	685b      	ldr	r3, [r3, #4]
 8000134:	4a05      	ldr	r2, [pc, #20]	@ (800014c <config_bus_clock+0x4c>)
 8000136:	f423 5360 	bic.w	r3, r3, #14336	@ 0x3800
 800013a:	6053      	str	r3, [r2, #4]
 800013c:	4b03      	ldr	r3, [pc, #12]	@ (800014c <config_bus_clock+0x4c>)
 800013e:	4a03      	ldr	r2, [pc, #12]	@ (800014c <config_bus_clock+0x4c>)
 8000140:	685b      	ldr	r3, [r3, #4]
 8000142:	6053      	str	r3, [r2, #4]
 8000144:	bf00      	nop
 8000146:	46bd      	mov	sp, r7
 8000148:	bc80      	pop	{r7}
 800014a:	4770      	bx	lr
 800014c:	40021000 	andmi	r1, r2, r0

08000150 <setclock_pll>:
 8000150:	b480      	push	{r7}
 8000152:	af00      	add	r7, sp, #0
 8000154:	4b0b      	ldr	r3, [pc, #44]	@ (8000184 <setclock_pll+0x34>)
 8000156:	685b      	ldr	r3, [r3, #4]
 8000158:	4a0a      	ldr	r2, [pc, #40]	@ (8000184 <setclock_pll+0x34>)
 800015a:	f023 0303 	bic.w	r3, r3, #3
 800015e:	6053      	str	r3, [r2, #4]
 8000160:	4b08      	ldr	r3, [pc, #32]	@ (8000184 <setclock_pll+0x34>)
 8000162:	685b      	ldr	r3, [r3, #4]
 8000164:	4a07      	ldr	r2, [pc, #28]	@ (8000184 <setclock_pll+0x34>)
 8000166:	f043 0302 	orr.w	r3, r3, #2
 800016a:	6053      	str	r3, [r2, #4]
 800016c:	bf00      	nop
 800016e:	4b05      	ldr	r3, [pc, #20]	@ (8000184 <setclock_pll+0x34>)
 8000170:	685b      	ldr	r3, [r3, #4]
 8000172:	f003 0308 	and.w	r3, r3, #8
 8000176:	2b00      	cmp	r3, #0
 8000178:	d0f9      	beq.n	800016e <setclock_pll+0x1e>
 800017a:	bf00      	nop
 800017c:	bf00      	nop
 800017e:	46bd      	mov	sp, r7
 8000180:	bc80      	pop	{r7}
 8000182:	4770      	bx	lr
 8000184:	40021000 	andmi	r1, r2, r0

08000188 <set_optimal_clock>:
 8000188:	b580      	push	{r7, lr}
 800018a:	af00      	add	r7, sp, #0
 800018c:	f7ff ff5c 	bl	8000048 <enable_hse>
 8000190:	f7ff ff8c 	bl	80000ac <config_pll_with_hse_72mhz>
 8000194:	f7ff ff6e 	bl	8000074 <enable_pll>
 8000198:	f7ff ffb2 	bl	8000100 <config_bus_clock>
 800019c:	f7ff ffd8 	bl	8000150 <setclock_pll>
 80001a0:	bf00      	nop
 80001a2:	bd80      	pop	{r7, pc}

080001a4 <systick_setup>:
 80001a4:	b480      	push	{r7}
 80001a6:	b083      	sub	sp, #12
 80001a8:	af00      	add	r7, sp, #0
 80001aa:	4b0c      	ldr	r3, [pc, #48]	@ (80001dc <systick_setup+0x38>)
 80001ac:	607b      	str	r3, [r7, #4]
 80001ae:	4b0c      	ldr	r3, [pc, #48]	@ (80001e0 <systick_setup+0x3c>)
 80001b0:	2204      	movs	r2, #4
 80001b2:	601a      	str	r2, [r3, #0]
 80001b4:	4a0a      	ldr	r2, [pc, #40]	@ (80001e0 <systick_setup+0x3c>)
 80001b6:	687b      	ldr	r3, [r7, #4]
 80001b8:	f06f 417f 	mvn.w	r1, #4278190080	@ 0xff000000
 80001bc:	428b      	cmp	r3, r1
 80001be:	bf28      	it	cs
 80001c0:	460b      	movcs	r3, r1
 80001c2:	6053      	str	r3, [r2, #4]
 80001c4:	4b06      	ldr	r3, [pc, #24]	@ (80001e0 <systick_setup+0x3c>)
 80001c6:	2200      	movs	r2, #0
 80001c8:	609a      	str	r2, [r3, #8]
 80001ca:	4b05      	ldr	r3, [pc, #20]	@ (80001e0 <systick_setup+0x3c>)
 80001cc:	2205      	movs	r2, #5
 80001ce:	601a      	str	r2, [r3, #0]
 80001d0:	bf00      	nop
 80001d2:	370c      	adds	r7, #12
 80001d4:	46bd      	mov	sp, r7
 80001d6:	bc80      	pop	{r7}
 80001d8:	4770      	bx	lr
 80001da:	bf00      	nop
 80001dc:	00b71b00 	adcseq	r1, r7, r0, lsl #22
 80001e0:	e000e010 	and	lr, r0, r0, lsl r0

080001e4 <systick_wait>:
 80001e4:	b480      	push	{r7}
 80001e6:	b083      	sub	sp, #12
 80001e8:	af00      	add	r7, sp, #0
 80001ea:	4b09      	ldr	r3, [pc, #36]	@ (8000210 <systick_wait+0x2c>)
 80001ec:	681b      	ldr	r3, [r3, #0]
 80001ee:	607b      	str	r3, [r7, #4]
 80001f0:	e002      	b.n	80001f8 <systick_wait+0x14>
 80001f2:	4b07      	ldr	r3, [pc, #28]	@ (8000210 <systick_wait+0x2c>)
 80001f4:	681b      	ldr	r3, [r3, #0]
 80001f6:	607b      	str	r3, [r7, #4]
 80001f8:	687b      	ldr	r3, [r7, #4]
 80001fa:	f403 3380 	and.w	r3, r3, #65536	@ 0x10000
 80001fe:	2b00      	cmp	r3, #0
 8000200:	d0f7      	beq.n	80001f2 <systick_wait+0xe>
 8000202:	bf00      	nop
 8000204:	bf00      	nop
 8000206:	370c      	adds	r7, #12
 8000208:	46bd      	mov	sp, r7
 800020a:	bc80      	pop	{r7}
 800020c:	4770      	bx	lr
 800020e:	bf00      	nop
 8000210:	e000e010 	and	lr, r0, r0, lsl r0

08000214 <systick_wait_sec>:
 8000214:	b580      	push	{r7, lr}
 8000216:	b082      	sub	sp, #8
 8000218:	af00      	add	r7, sp, #0
 800021a:	2300      	movs	r3, #0
 800021c:	607b      	str	r3, [r7, #4]
 800021e:	2306      	movs	r3, #6
 8000220:	603b      	str	r3, [r7, #0]
 8000222:	e004      	b.n	800022e <systick_wait_sec+0x1a>
 8000224:	f7ff ffde 	bl	80001e4 <systick_wait>
 8000228:	687b      	ldr	r3, [r7, #4]
 800022a:	3301      	adds	r3, #1
 800022c:	607b      	str	r3, [r7, #4]
 800022e:	687a      	ldr	r2, [r7, #4]
 8000230:	683b      	ldr	r3, [r7, #0]
 8000232:	429a      	cmp	r2, r3
 8000234:	dbf6      	blt.n	8000224 <systick_wait_sec+0x10>
 8000236:	bf00      	nop
 8000238:	bf00      	nop
 800023a:	3708      	adds	r7, #8
 800023c:	46bd      	mov	sp, r7
 800023e:	bd80      	pop	{r7, pc}

08000240 <led_setup>:
 8000240:	b480      	push	{r7}
 8000242:	af00      	add	r7, sp, #0
 8000244:	4b07      	ldr	r3, [pc, #28]	@ (8000264 <led_setup+0x24>)
 8000246:	699b      	ldr	r3, [r3, #24]
 8000248:	4a06      	ldr	r2, [pc, #24]	@ (8000264 <led_setup+0x24>)
 800024a:	f043 0310 	orr.w	r3, r3, #16
 800024e:	6193      	str	r3, [r2, #24]
 8000250:	4b05      	ldr	r3, [pc, #20]	@ (8000268 <led_setup+0x28>)
 8000252:	685b      	ldr	r3, [r3, #4]
 8000254:	4a04      	ldr	r2, [pc, #16]	@ (8000268 <led_setup+0x28>)
 8000256:	f443 1300 	orr.w	r3, r3, #2097152	@ 0x200000
 800025a:	6053      	str	r3, [r2, #4]
 800025c:	bf00      	nop
 800025e:	46bd      	mov	sp, r7
 8000260:	bc80      	pop	{r7}
 8000262:	4770      	bx	lr
 8000264:	40021000 	andmi	r1, r2, r0
 8000268:	40011000 	andmi	r1, r1, r0

0800026c <led_toggle>:
 800026c:	b480      	push	{r7}
 800026e:	b083      	sub	sp, #12
 8000270:	af00      	add	r7, sp, #0
 8000272:	6078      	str	r0, [r7, #4]
 8000274:	4b05      	ldr	r3, [pc, #20]	@ (800028c <led_toggle+0x20>)
 8000276:	68db      	ldr	r3, [r3, #12]
 8000278:	4a04      	ldr	r2, [pc, #16]	@ (800028c <led_toggle+0x20>)
 800027a:	f483 5300 	eor.w	r3, r3, #8192	@ 0x2000
 800027e:	60d3      	str	r3, [r2, #12]
 8000280:	bf00      	nop
 8000282:	370c      	adds	r7, #12
 8000284:	46bd      	mov	sp, r7
 8000286:	bc80      	pop	{r7}
 8000288:	4770      	bx	lr
 800028a:	bf00      	nop
 800028c:	40011000 	andmi	r1, r1, r0

08000290 <main>:
 8000290:	b580      	push	{r7, lr}
 8000292:	af00      	add	r7, sp, #0
 8000294:	f000 f803 	bl	800029e <setup>
 8000298:	f000 f80b 	bl	80002b2 <loop>
 800029c:	e7fc      	b.n	8000298 <main+0x8>

0800029e <setup>:
 800029e:	b580      	push	{r7, lr}
 80002a0:	af00      	add	r7, sp, #0
 80002a2:	f7ff ff71 	bl	8000188 <set_optimal_clock>
 80002a6:	f7ff ff7d 	bl	80001a4 <systick_setup>
 80002aa:	f7ff ffc9 	bl	8000240 <led_setup>
 80002ae:	bf00      	nop
 80002b0:	bd80      	pop	{r7, pc}

080002b2 <loop>:
 80002b2:	b580      	push	{r7, lr}
 80002b4:	af00      	add	r7, sp, #0
 80002b6:	2001      	movs	r0, #1
 80002b8:	f7ff ffd8 	bl	800026c <led_toggle>
 80002bc:	f7ff ffaa 	bl	8000214 <systick_wait_sec>
 80002c0:	2000      	movs	r0, #0
 80002c2:	f7ff ffd3 	bl	800026c <led_toggle>
 80002c6:	f7ff ffa5 	bl	8000214 <systick_wait_sec>
 80002ca:	bf00      	nop
 80002cc:	bd80      	pop	{r7, pc}
 80002ce:	bf00      	nop

Disassembly of section .ARM.attributes:

00000000 <.ARM.attributes>:
   0:	00002e41 	andeq	r2, r0, r1, asr #28
   4:	61656100 	cmnvs	r5, r0, lsl #2
   8:	01006962 	tsteq	r0, r2, ror #18
   c:	00000024 	andeq	r0, r0, r4, lsr #32
  10:	726f4305 	rsbvc	r4, pc, #335544320	@ 0x14000000
  14:	2d786574 	ldclcs	5, cr6, [r8, #-464]!	@ 0xfffffe30
  18:	0600334d 	streq	r3, [r0], -sp, asr #6
  1c:	094d070a 	stmdbeq	sp, {r1, r3, r8, r9, sl}^
  20:	14041202 	strne	r1, [r4], #-514	@ 0xfffffdfe
  24:	17011501 	strne	r1, [r1, -r1, lsl #10]
  28:	1a011803 	bne	4603c <hang-0x7fba008>
  2c:	Address 0x2c is out of bounds.


Disassembly of section .comment:

00000000 <.comment>:
   0:	3a434347 	bcc	10d0d24 <hang-0x6f2f320>
   4:	72412820 	subvc	r2, r1, #32, 16	@ 0x200000
   8:	52206863 	eorpl	r6, r0, #6488064	@ 0x630000
   c:	736f7065 	cmnvc	pc, #101	@ 0x65
  10:	726f7469 	rsbvc	r7, pc, #1761607680	@ 0x69000000
  14:	31202979 			@ <UNDEFINED> instruction: 0x31202979
  18:	2e322e34 	mrccs	14, 1, r2, cr2, cr4, {1}
  1c:	Address 0x1c is out of bounds.


Disassembly of section .debug_info:

00000000 <.debug_info>:
   0:	00000339 	andeq	r0, r0, r9, lsr r3
   4:	04010005 	streq	r0, [r1], #-5
   8:	00000000 	andeq	r0, r0, r0
   c:	00000d0c 	andeq	r0, r0, ip, lsl #26
  10:	01101d00 	tsteq	r0, r0, lsl #26
  14:	016f0000 	cmneq	pc, r0
  18:	00480000 	subeq	r0, r8, r0
  1c:	02860800 	addeq	r0, r6, #0, 16
  20:	00000000 	andeq	r0, r0, r0
  24:	01020000 	mrseq	r0, (UNDEF: 2)
  28:	0000e106 	andeq	lr, r0, r6, lsl #2
  2c:	05020200 	streq	r0, [r2, #-512]	@ 0xfffffe00
  30:	000000fe 	strdeq	r0, [r0], -lr
  34:	61050402 	tstvs	r5, r2, lsl #8
  38:	02000001 	andeq	r0, r0, #1
  3c:	015c0508 	cmpeq	ip, r8, lsl #10
  40:	01020000 	mrseq	r0, (UNDEF: 2)
  44:	0000df08 	andeq	sp, r0, r8, lsl #30
  48:	07020200 	streq	r0, [r2, -r0, lsl #4]
  4c:	000000b8 	strheq	r0, [r0], -r8
  50:	0001c20d 	andeq	ip, r1, sp, lsl #4
  54:	19340600 	ldmdbne	r4!, {r9, sl}
  58:	00000066 	andeq	r0, r0, r6, rrx
  5c:	00005008 	andeq	r5, r0, r8
  60:	005c0e00 	subseq	r0, ip, r0, lsl #28
  64:	04020000 	streq	r0, [r2], #-0
  68:	00013b07 	andeq	r3, r1, r7, lsl #22
  6c:	07080200 	streq	r0, [r8, -r0, lsl #4]
  70:	00000136 	andeq	r0, r0, r6, lsr r1
  74:	6905040f 	stmdbvs	r5, {r0, r1, r2, r3, sl}
  78:	0800746e 	stmdaeq	r0, {r1, r2, r3, r5, r6, sl, ip, sp, lr}
  7c:	00000074 	andeq	r0, r0, r4, ror r0
  80:	40070402 	andmi	r0, r7, r2, lsl #8
  84:	06000001 	streq	r0, [r0], -r1
  88:	02ab0510 	adceq	r0, fp, #16, 10	@ 0x4000000
  8c:	000000c9 	andeq	r0, r0, r9, asr #1
  90:	00008301 	andeq	r8, r0, r1, lsl #6
  94:	02ad0500 	adceq	r0, sp, #0, 10
  98:	00005c12 	andeq	r5, r0, r2, lsl ip
  9c:	94010000 	strls	r0, [r1], #-0
  a0:	05000001 	streq	r0, [r0, #-1]
  a4:	5c1202ae 	ldcpl	2, cr0, [r2], {174}	@ 0xae
  a8:	04000000 	streq	r0, [r0], #-0
  ac:	4c415603 	mcrrmi	6, 0, r5, r1, cr3
  b0:	02af0500 	adceq	r0, pc, #0, 10
  b4:	00005c12 	andeq	r5, r0, r2, lsl ip
  b8:	cb010800 	blgt	420c0 <hang-0x7fbdf84>
  bc:	05000000 	streq	r0, [r0, #-0]
  c0:	611202b0 			@ <UNDEFINED> instruction: 0x611202b0
  c4:	0c000000 	stceq	0, cr0, [r0], {-0}
  c8:	01cb0700 	biceq	r0, fp, r0, lsl #14
  cc:	b1050000 	mrslt	r0, (UNDEF: 5)
  d0:	00008702 	andeq	r8, r0, r2, lsl #14
  d4:	071c0600 	ldreq	r0, [ip, -r0, lsl #12]
  d8:	01410165 	cmpeq	r1, r5, ror #2
  dc:	43030000 	movwmi	r0, #12288	@ 0x3000
  e0:	07004c52 	smlsdeq	r0, r2, ip, r4
  e4:	5c110167 	ldcpl	1, cr0, [r1], {103}	@ 0x67
  e8:	00000000 	andeq	r0, r0, r0
  ec:	48524303 	ldmdami	r2, {r0, r1, r8, r9, lr}^
  f0:	01680700 	cmneq	r8, r0, lsl #14
  f4:	00005c11 	andeq	r5, r0, r1, lsl ip
  f8:	49030400 	stmdbmi	r3, {sl}
  fc:	07005244 	streq	r5, [r0, -r4, asr #4]
 100:	5c110169 	ldcpl	1, cr0, [r1], {105}	@ 0x69
 104:	08000000 	stmdaeq	r0, {}	@ <UNPREDICTABLE>
 108:	52444f03 	subpl	r4, r4, #3, 30
 10c:	016a0700 	cmneq	sl, r0, lsl #14
 110:	00005c11 	andeq	r5, r0, r1, lsl ip
 114:	9a010c00 	bls	4311c <hang-0x7fbcf28>
 118:	07000000 	streq	r0, [r0, -r0]
 11c:	5c11016b 	ldcpl	1, cr0, [r1], {107}	@ 0x6b
 120:	10000000 	andne	r0, r0, r0
 124:	52524203 	subspl	r4, r2, #805306368	@ 0x30000000
 128:	016c0700 	cmneq	ip, r0, lsl #14
 12c:	00005c11 	andeq	r5, r0, r1, lsl ip
 130:	0a011400 	beq	45138 <hang-0x7fbaf0c>
 134:	07000002 	streq	r0, [r0, -r2]
 138:	5c11016d 	ldcpl	1, cr0, [r1], {109}	@ 0x6d
 13c:	18000000 	stmdane	r0, {}	@ <UNPREDICTABLE>
 140:	01290700 			@ <UNDEFINED> instruction: 0x01290700
 144:	6e070000 	cdpvs	0, 0, cr0, cr7, cr0, {0}
 148:	0000d501 	andeq	sp, r0, r1, lsl #10
 14c:	07280600 	streq	r0, [r8, -r0, lsl #12]!
 150:	01e201a7 	mvneq	r0, r7, lsr #3
 154:	43030000 	movwmi	r0, #12288	@ 0x3000
 158:	a9070052 	stmdbge	r7, {r1, r4, r6}
 15c:	005c1101 	subseq	r1, ip, r1, lsl #2
 160:	01000000 	mrseq	r0, (UNDEF: 0)
 164:	00000066 	andeq	r0, r0, r6, rrx
 168:	1101aa07 	tstne	r1, r7, lsl #20
 16c:	0000005c 	andeq	r0, r0, ip, asr r0
 170:	49430304 	stmdbmi	r3, {r2, r8, r9}^
 174:	ab070052 	blge	1c02c4 <hang-0x7e3fd80>
 178:	005c1101 	subseq	r1, ip, r1, lsl #2
 17c:	01080000 	mrseq	r0, (UNDEF: 8)
 180:	00000120 	andeq	r0, r0, r0, lsr #2
 184:	1101ac07 	tstne	r1, r7, lsl #24
 188:	0000005c 	andeq	r0, r0, ip, asr r0
 18c:	00aa010c 	adceq	r0, sl, ip, lsl #2
 190:	ad070000 	stcge	0, cr0, [r7, #-0]
 194:	005c1101 	subseq	r1, ip, r1, lsl #2
 198:	01100000 	tsteq	r0, r0
 19c:	0000006b 	andeq	r0, r0, fp, rrx
 1a0:	1101ae07 	tstne	r1, r7, lsl #28
 1a4:	0000005c 	andeq	r0, r0, ip, asr r0
 1a8:	00000114 	andeq	r0, r0, r4, lsl r1
 1ac:	af070000 	svcge	0x00070000
 1b0:	005c1101 	subseq	r1, ip, r1, lsl #2
 1b4:	01180000 	tsteq	r8, r0
 1b8:	00000108 	andeq	r0, r0, r8, lsl #2
 1bc:	1101b007 	tstne	r1, r7
 1c0:	0000005c 	andeq	r0, r0, ip, asr r0
 1c4:	0008011c 	andeq	r0, r8, ip, lsl r1
 1c8:	b1070000 	mrslt	r0, (UNDEF: 7)
 1cc:	005c1101 	subseq	r1, ip, r1, lsl #2
 1d0:	03200000 	nopeq	{0}	@ <UNPREDICTABLE>
 1d4:	00525343 	subseq	r5, r2, r3, asr #6
 1d8:	1101b207 	tstne	r1, r7, lsl #4
 1dc:	0000005c 	andeq	r0, r0, ip, asr r0
 1e0:	a9070024 	stmdbge	r7, {r2, r5}
 1e4:	07000001 	streq	r0, [r0, -r1]
 1e8:	014d01b5 	strheq	r0, [sp, #-21]	@ 0xffffffeb
 1ec:	b3050000 	movwlt	r0, #20480	@ 0x5000
 1f0:	01000000 	mrseq	r0, (UNDEF: 0)
 1f4:	0002b215 	andeq	fp, r2, r5, lsl r2
 1f8:	00001c08 	andeq	r1, r0, r8, lsl #24
 1fc:	059c0100 	ldreq	r0, [ip, #256]	@ 0x100
 200:	00000151 	andeq	r0, r0, r1, asr r1
 204:	029e0f01 	addseq	r0, lr, #1, 30
 208:	00140800 	andseq	r0, r4, r0, lsl #16
 20c:	9c010000 	stcls	0, cr0, [r1], {-0}
 210:	00015705 	andeq	r5, r1, r5, lsl #14
 214:	900a0100 	andls	r0, sl, r0, lsl #2
 218:	0e080002 	cdpeq	0, 0, cr0, cr8, cr2, {0}
 21c:	01000000 	mrseq	r0, (UNDEF: 0)
 220:	009f109c 	umullseq	r1, pc, ip, r0	@ <UNPREDICTABLE>
 224:	08040000 	stmdaeq	r4, {}	@ <UNPREDICTABLE>
 228:	00026c06 	andeq	r6, r2, r6, lsl #24
 22c:	00002408 	andeq	r2, r0, r8, lsl #8
 230:	469c0100 	ldrmi	r0, [ip], r0, lsl #2
 234:	11000002 	tstne	r0, r2
 238:	04006e6f 	streq	r6, [r0], #-3695	@ 0xfffff191
 23c:	00741608 	rsbseq	r1, r4, r8, lsl #12
 240:	91020000 	mrsls	r0, (UNDEF: 2)
 244:	4d040074 	stcmi	0, cr0, [r4, #-464]	@ 0xfffffe30
 248:	04000001 	streq	r0, [r0], #-1
 24c:	00024003 	andeq	r4, r2, r3
 250:	00002c08 	andeq	r2, r0, r8, lsl #24
 254:	129c0100 	addsne	r0, ip, #0, 2
 258:	000000ed 	andeq	r0, r0, sp, ror #1
 25c:	14061403 	strne	r1, [r6], #-1027	@ 0xfffffbfd
 260:	2c080002 	stccs	0, cr0, [r8], {2}
 264:	01000000 	mrseq	r0, (UNDEF: 0)
 268:	0002929c 	muleq	r2, ip, r2
 26c:	021a1300 	andseq	r1, sl, #0, 6
 270:	001c0800 	andseq	r0, ip, r0, lsl #16
 274:	69090000 	stmdbvs	r9, {}	@ <UNPREDICTABLE>
 278:	740d1500 	strvc	r1, [sp], #-1280	@ 0xfffffb00
 27c:	02000000 	andeq	r0, r0, #0
 280:	6a0a7491 	bvs	29d4cc <hang-0x7d62b78>
 284:	15000001 	strne	r0, [r0, #-1]
 288:	00007414 	andeq	r7, r0, r4, lsl r4
 28c:	70910200 	addsvc	r0, r1, r0, lsl #4
 290:	d80b0000 	stmdale	fp, {}	@ <UNPREDICTABLE>
 294:	0c000001 	stceq	0, cr0, [r0], {1}
 298:	080001e4 	stmdaeq	r0, {r2, r5, r6, r7, r8}
 29c:	00000030 	andeq	r0, r0, r0, lsr r0
 2a0:	02b39c01 	adcseq	r9, r3, #256	@ 0x100
 2a4:	69090000 	stmdbvs	r9, {}	@ <UNPREDICTABLE>
 2a8:	7b110d00 	blvc	4436b0 <hang-0x7bbc994>
 2ac:	02000000 	andeq	r0, r0, #0
 2b0:	0b007491 	bleq	1d4fc <hang-0x7fe2b48>
 2b4:	000000d1 	ldrdeq	r0, [r0], -r1
 2b8:	0001a404 	andeq	sl, r1, r4, lsl #8
 2bc:	00004008 	andeq	r4, r0, r8
 2c0:	d69c0100 	ldrle	r0, [ip], r0, lsl #2
 2c4:	0a000002 	beq	2d4 <hang-0x7fffd70>
 2c8:	000001a4 	andeq	r0, r0, r4, lsr #3
 2cc:	00801105 	addeq	r1, r0, r5, lsl #2
 2d0:	91020000 	mrsls	r0, (UNDEF: 2)
 2d4:	88050074 	stmdahi	r5, {r2, r4, r5, r6}
 2d8:	02000000 	andeq	r0, r0, #0
 2dc:	00018826 	andeq	r8, r1, r6, lsr #16
 2e0:	00001c08 	andeq	r1, r0, r8, lsl #24
 2e4:	049c0100 	ldreq	r0, [ip], #256	@ 0x100
 2e8:	000001b5 			@ <UNDEFINED> instruction: 0x000001b5
 2ec:	01502102 	cmpeq	r0, r2, lsl #2
 2f0:	00380800 	eorseq	r0, r8, r0, lsl #16
 2f4:	9c010000 	stcls	0, cr0, [r1], {-0}
 2f8:	00007204 	andeq	r7, r0, r4, lsl #4
 2fc:	001b0200 	andseq	r0, fp, r0, lsl #4
 300:	50080001 	andpl	r0, r8, r1
 304:	01000000 	mrseq	r0, (UNDEF: 0)
 308:	01e5049c 			@ <UNDEFINED> instruction: 0x01e5049c
 30c:	15020000 	strne	r0, [r2, #-0]
 310:	080000ac 	stmdaeq	r0, {r2, r3, r5, r7}
 314:	00000054 	andeq	r0, r0, r4, asr r0
 318:	ff049c01 			@ <UNDEFINED> instruction: 0xff049c01
 31c:	02000001 	andeq	r0, r0, #1
 320:	0000740f 	andeq	r7, r0, pc, lsl #8
 324:	00003808 	andeq	r3, r0, r8, lsl #16
 328:	049c0100 	ldreq	r0, [ip], #256	@ 0x100
 32c:	00000199 	muleq	r0, r9, r1
 330:	00480a02 	subeq	r0, r8, r2, lsl #20
 334:	002c0800 	eoreq	r0, ip, r0, lsl #16
 338:	9c010000 	stcls	0, cr0, [r1], {-0}
	...

Disassembly of section .debug_abbrev:

00000000 <.debug_abbrev>:
   0:	03000d01 	movweq	r0, #3329	@ 0xd01
   4:	3b0b3a0e 	blcc	2ce844 <hang-0x7d31800>
   8:	490b3905 	stmdbmi	fp, {r0, r2, r8, fp, ip, sp}
   c:	000b3813 	andeq	r3, fp, r3, lsl r8
  10:	00240200 	eoreq	r0, r4, r0, lsl #4
  14:	0b3e0b0b 	bleq	f82c48 <hang-0x707d3fc>
  18:	00000e03 	andeq	r0, r0, r3, lsl #28
  1c:	03000d03 	movweq	r0, #3331	@ 0xd03
  20:	3b0b3a08 	blcc	2ce848 <hang-0x7d317fc>
  24:	490b3905 	stmdbmi	fp, {r0, r2, r8, fp, ip, sp}
  28:	000b3813 	andeq	r3, fp, r3, lsl r8
  2c:	002e0400 	eoreq	r0, lr, r0, lsl #8
  30:	0e03193f 			@ <UNDEFINED> instruction: 0x0e03193f
  34:	0b3b0b3a 	bleq	ec2d24 <hang-0x713d320>
  38:	11062139 	tstne	r6, r9, lsr r1
  3c:	40061201 	andmi	r1, r6, r1, lsl #4
  40:	00197a18 	andseq	r7, r9, r8, lsl sl
  44:	002e0500 	eoreq	r0, lr, r0, lsl #10
  48:	0e03193f 			@ <UNDEFINED> instruction: 0x0e03193f
  4c:	0b3b0b3a 	bleq	ec2d3c <hang-0x713d308>
  50:	11062139 	tstne	r6, r9, lsr r1
  54:	40061201 	andmi	r1, r6, r1, lsl #4
  58:	00197c18 	andseq	r7, r9, r8, lsl ip
  5c:	01130600 	tsteq	r3, r0, lsl #12
  60:	0b3a0b0b 	bleq	e82c94 <hang-0x717d3b0>
  64:	2139053b 	teqcs	r9, fp, lsr r5
  68:	00130109 	andseq	r0, r3, r9, lsl #2
  6c:	00160700 	andseq	r0, r6, r0, lsl #14
  70:	0b3a0e03 	bleq	e83884 <hang-0x717c7c0>
  74:	2139053b 	teqcs	r9, fp, lsr r5
  78:	00134903 	andseq	r4, r3, r3, lsl #18
  7c:	00350800 	eorseq	r0, r5, r0, lsl #16
  80:	00001349 	andeq	r1, r0, r9, asr #6
  84:	03003409 	movweq	r3, #1033	@ 0x409
  88:	03213a08 			@ <UNDEFINED> instruction: 0x03213a08
  8c:	0b390b3b 	bleq	e42d80 <hang-0x71bd2c4>
  90:	18021349 	stmdane	r2, {r0, r3, r6, r8, r9, ip}
  94:	340a0000 	strcc	r0, [sl], #-0
  98:	3a0e0300 	bcc	380ca0 <hang-0x7c7f3a4>
  9c:	0b3b0321 	bleq	ec0d28 <hang-0x713f31c>
  a0:	13490b39 	movtne	r0, #39737	@ 0x9b39
  a4:	00001802 	andeq	r1, r0, r2, lsl #16
  a8:	3f012e0b 	svccc	0x00012e0b
  ac:	3a0e0319 	bcc	380d18 <hang-0x7c7f32c>
  b0:	0b3b0321 	bleq	ec0d3c <hang-0x713f308>
  b4:	11062139 	tstne	r6, r9, lsr r1
  b8:	40061201 	andmi	r1, r6, r1, lsl #4
  bc:	01197a18 	tsteq	r9, r8, lsl sl
  c0:	0c000013 	stceq	0, cr0, [r0], {19}
  c4:	0e250111 	mcreq	1, 1, r0, cr5, cr1, {0}
  c8:	0e030b13 	vmoveq.32	d3[0], r0
  cc:	01110e1b 	tsteq	r1, fp, lsl lr
  d0:	17100612 			@ <UNDEFINED> instruction: 0x17100612
  d4:	160d0000 	strne	r0, [sp], -r0
  d8:	3a0e0300 	bcc	380ce0 <hang-0x7c7f364>
  dc:	390b3b0b 	stmdbcc	fp, {r0, r1, r3, r8, r9, fp, ip, sp}
  e0:	0013490b 	andseq	r4, r3, fp, lsl #18
  e4:	00260e00 	eoreq	r0, r6, r0, lsl #28
  e8:	00001349 	andeq	r1, r0, r9, asr #6
  ec:	0b00240f 	bleq	9130 <hang-0x7ff6f14>
  f0:	030b3e0b 	movweq	r3, #48651	@ 0xbe0b
  f4:	10000008 	andne	r0, r0, r8
  f8:	193f012e 	ldmdbne	pc!, {r1, r2, r3, r5, r8}	@ <UNPREDICTABLE>
  fc:	0b3a0e03 	bleq	e83910 <hang-0x717c734>
 100:	0b390b3b 	bleq	e42df4 <hang-0x71bd250>
 104:	01111927 	tsteq	r1, r7, lsr #18
 108:	18400612 	stmdane	r0, {r1, r4, r9, sl}^
 10c:	1301197a 	movwne	r1, #6522	@ 0x197a
 110:	05110000 	ldreq	r0, [r1, #-0]
 114:	3a080300 	bcc	200d1c <hang-0x7dff328>
 118:	390b3b0b 	stmdbcc	fp, {r0, r1, r3, r8, r9, fp, ip, sp}
 11c:	0213490b 	andseq	r4, r3, #180224	@ 0x2c000
 120:	12000018 	andne	r0, r0, #24
 124:	193f012e 	ldmdbne	pc!, {r1, r2, r3, r5, r8}	@ <UNPREDICTABLE>
 128:	0b3a0e03 	bleq	e8393c <hang-0x717c708>
 12c:	0b390b3b 	bleq	e42e20 <hang-0x71bd224>
 130:	06120111 			@ <UNDEFINED> instruction: 0x06120111
 134:	197c1840 	ldmdbne	ip!, {r6, fp, ip}^
 138:	00001301 	andeq	r1, r0, r1, lsl #6
 13c:	11010b13 	tstne	r1, r3, lsl fp
 140:	00061201 	andeq	r1, r6, r1, lsl #4
	...

Disassembly of section .debug_aranges:

00000000 <.debug_aranges>:
   0:	0000001c 	andeq	r0, r0, ip, lsl r0
   4:	00000002 	andeq	r0, r0, r2
   8:	00040000 	andeq	r0, r4, r0
   c:	00000000 	andeq	r0, r0, r0
  10:	08000048 	stmdaeq	r0, {r3, r6}
  14:	00000286 	andeq	r0, r0, r6, lsl #5
	...

Disassembly of section .debug_line:

00000000 <.debug_line>:
   0:	00000228 	andeq	r0, r0, r8, lsr #4
   4:	00a60003 	adceq	r0, r6, r3
   8:	01020000 	mrseq	r0, (UNDEF: 2)
   c:	000d0efb 	strdeq	r0, [sp], -fp
  10:	01010101 	tsteq	r1, r1, lsl #2
  14:	01000000 	mrseq	r0, (UNDEF: 0)
  18:	43010000 	movwmi	r0, #4096	@ 0x1000
  1c:	2f005550 	svccs	0x00005550
  20:	2f727375 	svccs	0x00727375
  24:	2f62696c 	svccs	0x0062696c
  28:	2f636367 	svccs	0x00636367
  2c:	2d6d7261 	stclcs	2, cr7, [sp, #-388]!	@ 0xfffffe7c
  30:	656e6f6e 	strbvs	r6, [lr, #-3950]!	@ 0xfffff092
  34:	6261652d 	rsbvs	r6, r1, #188743680	@ 0xb400000
  38:	34312f69 	ldrtcc	r2, [r1], #-3945	@ 0xfffff097
  3c:	302e322e 	eorcc	r3, lr, lr, lsr #4
  40:	636e692f 	cmnvs	lr, #770048	@ 0xbc000
  44:	6564756c 	strbvs	r7, [r4, #-1388]!	@ 0xfffffa94
  48:	55434d00 	strbpl	r4, [r3, #-3328]	@ 0xfffff300
  4c:	79730000 	ldmdbvc	r3!, {}^	@ <UNPREDICTABLE>
  50:	63697473 	cmnvs	r9, #1929379840	@ 0x73000000
  54:	6c625f6b 	stclvs	15, cr5, [r2], #-428	@ 0xfffffe54
  58:	2e6b6e69 	cdpcs	14, 6, cr6, cr11, cr9, {3}
  5c:	00000063 	andeq	r0, r0, r3, rrx
  60:	63637200 	cmnvs	r3, #0, 4
  64:	0000682e 	andeq	r6, r0, lr, lsr #16
  68:	79730000 	ldmdbvc	r3!, {}^	@ <UNPREDICTABLE>
  6c:	63697473 	cmnvs	r9, #1929379840	@ 0x73000000
  70:	00682e6b 	rsbeq	r2, r8, fp, ror #28
  74:	6c000000 	stcvs	0, cr0, [r0], {-0}
  78:	682e6465 	stmdavs	lr!, {r0, r2, r5, r6, sl, sp, lr}
  7c:	00000000 	andeq	r0, r0, r0
  80:	65726f63 	ldrbvs	r6, [r2, #-3939]!	@ 0xfffff09d
  84:	336d635f 	cmncc	sp, #2080374785	@ 0x7c000001
  88:	0100682e 	tsteq	r0, lr, lsr #16
  8c:	74730000 	ldrbtvc	r0, [r3], #-0
  90:	746e6964 	strbtvc	r6, [lr], #-2404	@ 0xfffff69c
  94:	6363672d 	cmnvs	r3, #11796480	@ 0xb40000
  98:	0200682e 	andeq	r6, r0, #3014656	@ 0x2e0000
  9c:	74730000 	ldrbtvc	r0, [r3], #-0
  a0:	6632336d 	ldrtvs	r3, [r2], -sp, ror #6
  a4:	78333031 	ldmdavc	r3!, {r0, r4, r5, ip, sp}
  a8:	00682e62 	rsbeq	r2, r8, r2, ror #28
  ac:	00000003 	andeq	r0, r0, r3
  b0:	01050204 	tsteq	r5, r4, lsl #4
  b4:	48020500 	stmdami	r2, {r8, sl}
  b8:	03080000 	movweq	r0, #32768	@ 0x8000
  bc:	0705010a 	streq	r0, [r5, -sl, lsl #2]
  c0:	3c0c052e 	stccc	5, cr0, [ip], {46}	@ 0x2e
  c4:	053d0a05 	ldreq	r0, [sp, #-2565]!	@ 0xfffff5fb
  c8:	04020010 	streq	r0, [r2], #-16
  cc:	15052001 	strne	r2, [r5, #-1]
  d0:	01040200 	mrseq	r0, R12_usr
  d4:	000b052e 	andeq	r0, fp, lr, lsr #10
  d8:	2e010402 	cdpcs	4, 0, cr0, cr1, cr2, {0}
  dc:	772f0105 	strvc	r0, [pc, -r5, lsl #2]!
  e0:	052e0705 	streq	r0, [lr, #-1797]!	@ 0xfffff8fb
  e4:	07053c0c 	streq	r3, [r5, -ip, lsl #24]
  e8:	3c0c053d 	stccc	5, cr0, [ip], {61}	@ 0x3d
  ec:	053d0a05 	ldreq	r0, [sp, #-2565]!	@ 0xfffff5fb
  f0:	04020010 	streq	r0, [r2], #-16
  f4:	15052001 	strne	r2, [r5, #-1]
  f8:	01040200 	mrseq	r0, R12_usr
  fc:	000b052e 	andeq	r0, fp, lr, lsr #10
 100:	2e010402 	cdpcs	4, 0, cr0, cr1, cr2, {0}
 104:	772f0105 	strvc	r0, [pc, -r5, lsl #2]!
 108:	052e0705 	streq	r0, [lr, #-1797]!	@ 0xfffff8fb
 10c:	28053c0e 	stmdacs	r5, {r1, r2, r3, sl, fp, ip, sp}
 110:	3c2f053c 	stccc	5, cr0, [pc], #-240	@ 28 <hang-0x800001c>
 114:	05210705 	streq	r0, [r1, #-1797]!	@ 0xfffff8fb
 118:	28053c0e 	stmdacs	r5, {r1, r2, r3, sl, fp, ip, sp}
 11c:	3c2f053c 	stccc	5, cr0, [pc], #-240	@ 34 <hang-0x8000010>
 120:	053d0705 	ldreq	r0, [sp, #-1797]!	@ 0xfffff8fb
 124:	28053c0e 	stmdacs	r5, {r1, r2, r3, sl, fp, ip, sp}
 128:	3c2f053c 	stccc	5, cr0, [pc], #-240	@ 40 <hang-0x8000004>
 12c:	693d0105 	ldmdbvs	sp!, {r0, r2, r8}
 130:	052e0705 	streq	r0, [lr, #-1797]!	@ 0xfffff8fb
 134:	25053c0e 	strcs	r3, [r5, #-3086]	@ 0xfffff3f2
 138:	3c2c053c 	stccc	5, cr0, [ip], #-240	@ 0xffffff10
 13c:	05210705 	streq	r0, [r1, #-1797]!	@ 0xfffff8fb
 140:	25053c0e 	strcs	r3, [r5, #-3086]	@ 0xfffff3f2
 144:	3c2c053c 	stccc	5, cr0, [ip], #-240	@ 0xffffff10
 148:	053d0705 	ldreq	r0, [sp, #-1797]!	@ 0xfffff8fb
 14c:	25053c0e 	strcs	r3, [r5, #-3086]	@ 0xfffff3f2
 150:	3c2c053c 	stccc	5, cr0, [ip], #-240	@ 0xffffff10
 154:	69210105 	stmdbvs	r1!, {r0, r2, r8}
 158:	052e0705 	streq	r0, [lr, #-1797]!	@ 0xfffff8fb
 15c:	22053c0e 	andcs	r3, r5, #3584	@ 0xe00
 160:	3c29053c 	stccc	5, cr0, [r9], #-240	@ 0xffffff10
 164:	053d0a05 	ldreq	r0, [sp, #-2565]!	@ 0xfffff5fb
 168:	04020010 	streq	r0, [r2], #-16
 16c:	17052001 	strne	r2, [r5, -r1]
 170:	01040200 	mrseq	r0, R12_usr
 174:	000b052e 	andeq	r0, fp, lr, lsr #10
 178:	2e010402 	cdpcs	4, 0, cr0, cr1, cr2, {0}
 17c:	772f0105 	strvc	r0, [pc, -r5, lsl #2]!
 180:	2f2e0405 	svccs	0x002e0405
 184:	052f2f2f 	streq	r2, [pc, #-3887]!	@ fffff25d <_boot_checksum+0x50004646>
 188:	03042f01 	movweq	r2, #20225	@ 0x4f01
 18c:	052e5903 	streq	r5, [lr, #-2307]!	@ 0xfffff6fd
 190:	0b053c11 	bleq	14f1dc <hang-0x7eb0e68>
 194:	2012052f 	andscs	r0, r2, pc, lsr #10
 198:	052f0b05 	streq	r0, [pc, #-2821]!	@ fffff69b <_boot_checksum+0x50004a84>
 19c:	1205202b 	andne	r2, r5, #43	@ 0x2b
 1a0:	210b0566 	tstcs	fp, r6, ror #10
 1a4:	05201205 	streq	r1, [r0, #-517]!	@ 0xfffffdfb
 1a8:	12052f0b 	andne	r2, r5, #11, 30	@ 0x2c
 1ac:	2f010520 	svccs	0x00010520
 1b0:	3d0f05a1 	stccc	5, cr0, [pc, #-644]	@ ffffff34 <_boot_checksum+0x5000531d>
 1b4:	052e0605 	streq	r0, [lr, #-1541]!	@ 0xfffff9fb
 1b8:	1205210a 	andne	r2, r5, #-2147483646	@ 0x80000002
 1bc:	2e090521 	cdpcs	5, 0, cr0, cr9, cr1, {1}
 1c0:	051f0e05 	ldreq	r0, [pc, #-3589]	@ fffff3c3 <_boot_checksum+0x500047ac>
 1c4:	01053c1c 	tsteq	r5, ip, lsl ip
 1c8:	0d059331 	stceq	3, cr9, [r5, #-196]	@ 0xffffff3c
 1cc:	2e14053c 	mrccs	5, 0, r0, cr4, cr12, {1}
 1d0:	052e0405 	streq	r0, [lr, #-1029]!	@ 0xfffffbfb
 1d4:	3a052107 	bcc	1485f8 <hang-0x7eb7a4c>
 1d8:	03040200 	movweq	r0, #16896	@ 0x4200
 1dc:	0032052d 	eorseq	r0, r2, sp, lsr #10
 1e0:	3c010402 	stccc	4, cr0, [r1], {2}
 1e4:	044d0105 	strbeq	r0, [sp], #-261	@ 0xfffffefb
 1e8:	586c0304 	stmdapl	ip!, {r2, r8, r9}^
 1ec:	052e0705 	streq	r0, [lr, #-1797]!	@ 0xfffff8fb
 1f0:	09053c11 	stmdbeq	r5, {r0, r4, sl, fp, ip, sp}
 1f4:	3c0f053d 	stccc	5, cr0, [pc], {61}	@ 0x3d
 1f8:	853d0105 	ldrhi	r0, [sp, #-261]!	@ 0xfffffefb
 1fc:	054a0905 	strbeq	r0, [sl, #-2309]	@ 0xfffff6fb
 200:	01053c0f 	tsteq	r5, pc, lsl #24
 204:	8301043d 	movwhi	r0, #5181	@ 0x143d
 208:	052e0405 	streq	r0, [lr, #-1029]!	@ 0xfffffbfb
 20c:	0402000c 	streq	r0, [r2], #-12
 210:	01052f01 	tsteq	r5, r1, lsl #30
 214:	2e040540 	cdpcs	5, 0, cr0, cr4, cr0, {2}
 218:	01052f2f 	tsteq	r5, pc, lsr #30
 21c:	0405312f 	streq	r3, [r5], #-303	@ 0xfffffed1
 220:	3d2f3d2e 	stccc	13, cr3, [pc, #-184]!	@ 170 <hang-0x7fffed4>
 224:	022f0105 	eoreq	r0, pc, #1073741825	@ 0x40000001
 228:	01010002 	tsteq	r1, r2

Disassembly of section .debug_str:

00000000 <.debug_str>:
   0:	32425041 	subcc	r5, r2, #65	@ 0x41
   4:	00524e45 	subseq	r4, r2, r5, asr #28
   8:	52434442 	subpl	r4, r3, #1107296256	@ 0x42000000
   c:	554e4700 	strbpl	r4, [lr, #-1792]	@ 0xfffff900
  10:	37314320 	ldrcc	r4, [r1, -r0, lsr #6]!
  14:	2e343120 	cdpcs	1, 3, cr3, cr4, cr0, {1}
  18:	20302e32 	eorscs	r2, r0, r2, lsr lr
  1c:	68746d2d 	ldmdavs	r4!, {r0, r2, r3, r5, r8, sl, fp, sp, lr}^
  20:	20626d75 	rsbcs	r6, r2, r5, ror sp
  24:	70636d2d 	rsbvc	r6, r3, sp, lsr #26
  28:	6f633d75 	svcvs	0x00633d75
  2c:	78657472 	stmdavc	r5!, {r1, r4, r5, r6, sl, ip, sp, lr}^
  30:	20336d2d 	eorscs	r6, r3, sp, lsr #26
  34:	6c666d2d 	stclvs	13, cr6, [r6], #-180	@ 0xffffff4c
  38:	2d74616f 	ldclcs	1, cr6, [r4, #-444]!	@ 0xfffffe44
  3c:	3d696261 	stclcc	2, cr6, [r9, #-388]!	@ 0xfffffe7c
  40:	74666f73 	strbtvc	r6, [r6], #-3955	@ 0xfffff08d
  44:	616d2d20 	cmnvs	sp, r0, lsr #26
  48:	3d686372 	stclcc	3, cr6, [r8, #-456]!	@ 0xfffffe38
  4c:	766d7261 	strbtvc	r7, [sp], -r1, ror #4
  50:	206d2d37 	rsbcs	r2, sp, r7, lsr sp
  54:	2d20672d 	stccs	7, cr6, [r0, #-180]!	@ 0xffffff4c
  58:	65726666 	ldrbvs	r6, [r2, #-1638]!	@ 0xfffff99a
  5c:	61747365 	cmnvs	r4, r5, ror #6
  60:	6e69646e 	cdpvs	4, 6, cr6, cr9, cr14, {3}
  64:	46430067 	strbmi	r0, [r3], -r7, rrx
  68:	41005247 	tstmi	r0, r7, asr #4
  6c:	4e454248 	cdpmi	2, 4, cr4, cr5, cr8, {2}
  70:	6f630052 	svcvs	0x00630052
  74:	6769666e 	strbvs	r6, [r9, -lr, ror #12]!
  78:	7375625f 	cmnvc	r5, #-268435451	@ 0xf0000005
  7c:	6f6c635f 	svcvs	0x006c635f
  80:	43006b63 	movwmi	r6, #2915	@ 0xb63
  84:	004c5254 	subeq	r5, ip, r4, asr r2
  88:	5f746573 	svcpl	0x00746573
  8c:	6974706f 	ldmdbvs	r4!, {r0, r1, r2, r3, r5, r6, ip, sp, lr}^
  90:	5f6c616d 	svcpl	0x006c616d
  94:	636f6c63 	cmnvs	pc, #25344	@ 0x6300
  98:	5342006b 	movtpl	r0, #8299	@ 0x206b
  9c:	6c005252 	stcvs	2, cr5, [r0], {82}	@ 0x52
  a0:	745f6465 	ldrbvc	r6, [pc], #-1125	@ a8 <hang-0x7ffff9c>
  a4:	6c67676f 	stclvs	7, cr6, [r7], #-444	@ 0xfffffe44
  a8:	50410065 	subpl	r0, r1, r5, rrx
  ac:	53523142 	cmppl	r2, #-2147483632	@ 0x80000010
  b0:	6c005254 	stcvs	2, cr5, [r0], {84}	@ 0x54
  b4:	00706f6f 	rsbseq	r6, r0, pc, ror #30
  b8:	726f6873 	rsbvc	r6, pc, #7536640	@ 0x730000
  bc:	6e752074 	mrcvs	0, 3, r2, cr5, cr4, {3}
  c0:	6e676973 			@ <UNDEFINED> instruction: 0x6e676973
  c4:	69206465 	stmdbvs	r0!, {r0, r2, r5, r6, sl, sp, lr}
  c8:	4300746e 	movwmi	r7, #1134	@ 0x46e
  cc:	42494c41 	submi	r4, r9, #16640	@ 0x4100
  d0:	73797300 	cmnvc	r9, #0, 6
  d4:	6b636974 	blvs	18da6ac <hang-0x6725998>
  d8:	7465735f 	strbtvc	r7, [r5], #-863	@ 0xfffffca1
  dc:	75007075 	strvc	r7, [r0, #-117]	@ 0xffffff8b
  e0:	6769736e 	strbvs	r7, [r9, -lr, ror #6]!
  e4:	2064656e 	rsbcs	r6, r4, lr, ror #10
  e8:	72616863 	rsbvc	r6, r1, #6488064	@ 0x630000
  ec:	73797300 	cmnvc	r9, #0, 6
  f0:	6b636974 	blvs	18da6c8 <hang-0x672597c>
  f4:	6961775f 	stmdbvs	r1!, {r0, r1, r2, r3, r4, r6, r8, r9, sl, ip, sp, lr}^
  f8:	65735f74 	ldrbvs	r5, [r3, #-3956]!	@ 0xfffff08c
  fc:	68730063 	ldmdavs	r3!, {r0, r1, r5, r6}^
 100:	2074726f 	rsbscs	r7, r4, pc, ror #4
 104:	00746e69 	rsbseq	r6, r4, r9, ror #28
 108:	31425041 	cmpcc	r2, r1, asr #32
 10c:	00524e45 	subseq	r4, r2, r5, asr #28
 110:	74737973 	ldrbtvc	r7, [r3], #-2419	@ 0xfffff68d
 114:	5f6b6369 	svcpl	0x006b6369
 118:	6e696c62 	cdpvs	12, 6, cr6, cr9, cr2, {3}
 11c:	00632e6b 	rsbeq	r2, r3, fp, ror #28
 120:	32425041 	subcc	r5, r2, #65	@ 0x41
 124:	52545352 	subspl	r5, r4, #1207959553	@ 0x48000001
 128:	49504700 	ldmdbmi	r0, {r8, r9, sl, lr}^
 12c:	79545f4f 	ldmdbvc	r4, {r0, r1, r2, r3, r6, r8, r9, sl, fp, ip, lr}^
 130:	65446570 	strbvs	r6, [r4, #-1392]	@ 0xfffffa90
 134:	6f6c0066 	svcvs	0x006c0066
 138:	6c20676e 	stcvs	7, cr6, [r0], #-440	@ 0xfffffe48
 13c:	20676e6f 	rsbcs	r6, r7, pc, ror #28
 140:	69736e75 	ldmdbvs	r3!, {r0, r2, r4, r5, r6, r9, sl, fp, sp, lr}^
 144:	64656e67 	strbtvs	r6, [r5], #-3687	@ 0xfffff199
 148:	746e6920 	strbtvc	r6, [lr], #-2336	@ 0xfffff6e0
 14c:	64656c00 	strbtvs	r6, [r5], #-3072	@ 0xfffff400
 150:	7465735f 	strbtvc	r7, [r5], #-863	@ 0xfffffca1
 154:	6d007075 	stcvs	0, cr7, [r0, #-468]	@ 0xfffffe2c
 158:	006e6961 	rsbeq	r6, lr, r1, ror #18
 15c:	676e6f6c 	strbvs	r6, [lr, -ip, ror #30]!
 160:	6e6f6c20 	cdpvs	12, 6, cr6, cr15, cr0, {1}
 164:	6e692067 	cdpvs	0, 6, cr2, cr9, cr7, {3}
 168:	72740074 	rsbsvc	r0, r4, #116	@ 0x74
 16c:	2f007467 	svccs	0x00007467
 170:	656d6f68 	strbvs	r6, [sp, #-3944]!	@ 0xfffff098
 174:	7364692f 	cmnvc	r4, #770048	@ 0xbc000
 178:	6f72702f 	svcvs	0x0072702f
 17c:	6f775f2f 	svcvs	0x00775f2f
 180:	2f736b72 	svccs	0x00736b72
 184:	5f6d7261 	svcpl	0x006d7261
 188:	69736d63 	ldmdbvs	r3!, {r0, r1, r5, r6, r8, sl, fp, sp, lr}^
 18c:	6f775f73 	svcvs	0x00775f73
 190:	00736b72 	rsbseq	r6, r3, r2, ror fp
 194:	44414f4c 	strbmi	r4, [r1], #-3916	@ 0xfffff0b4
 198:	616e6500 	cmnvs	lr, r0, lsl #10
 19c:	5f656c62 	svcpl	0x00656c62
 1a0:	00657368 	rsbeq	r7, r5, r8, ror #6
 1a4:	64616f6c 	strbtvs	r6, [r1], #-3948	@ 0xfffff094
 1a8:	43435200 	movtmi	r5, #12800	@ 0x3200
 1ac:	7079545f 	rsbsvc	r5, r9, pc, asr r4
 1b0:	66654465 	strbtvs	r4, [r5], -r5, ror #8
 1b4:	74657300 	strbtvc	r7, [r5], #-768	@ 0xfffffd00
 1b8:	636f6c63 	cmnvs	pc, #25344	@ 0x6300
 1bc:	6c705f6b 	ldclvs	15, cr5, [r0], #-428	@ 0xfffffe54
 1c0:	6975006c 	ldmdbvs	r5!, {r2, r3, r5, r6}^
 1c4:	3233746e 	eorscc	r7, r3, #1845493760	@ 0x6e000000
 1c8:	5300745f 	movwpl	r7, #1119	@ 0x45f
 1cc:	69547379 	ldmdbvs	r4, {r0, r3, r4, r5, r6, r8, r9, ip, sp, lr}^
 1d0:	545f6b63 	ldrbpl	r6, [pc], #-2915	@ 1d8 <hang-0x7fffe6c>
 1d4:	00657079 	rsbeq	r7, r5, r9, ror r0
 1d8:	74737973 	ldrbtvc	r7, [r3], #-2419	@ 0xfffff68d
 1dc:	5f6b6369 	svcpl	0x006b6369
 1e0:	74696177 	strbtvc	r6, [r9], #-375	@ 0xfffffe89
 1e4:	6e6f6300 	cdpvs	3, 6, cr6, cr15, cr0, {0}
 1e8:	5f676966 	svcpl	0x00676966
 1ec:	5f6c6c70 	svcpl	0x006c6c70
 1f0:	68746977 	ldmdavs	r4!, {r0, r1, r2, r4, r5, r6, r8, fp, sp, lr}^
 1f4:	6573685f 	ldrbvs	r6, [r3, #-2143]!	@ 0xfffff7a1
 1f8:	6d32375f 	ldcvs	7, cr3, [r2, #-380]!	@ 0xfffffe84
 1fc:	65007a68 	strvs	r7, [r0, #-2664]	@ 0xfffff598
 200:	6c62616e 	stclvs	1, cr6, [r2], #-440	@ 0xfffffe48
 204:	6c705f65 	ldclvs	15, cr5, [r0], #-404	@ 0xfffffe6c
 208:	434c006c 	movtmi	r0, #49260	@ 0xc06c
 20c:	Address 0x20c is out of bounds.


Disassembly of section .debug_frame:

00000000 <.debug_frame>:
   0:	0000000c 	andeq	r0, r0, ip
   4:	ffffffff 			@ <UNDEFINED> instruction: 0xffffffff
   8:	7c020001 	stcvc	0, cr0, [r2], {1}
   c:	000d0c0e 	andeq	r0, sp, lr, lsl #24
  10:	0000001c 	andeq	r0, r0, ip, lsl r0
  14:	00000000 	andeq	r0, r0, r0
  18:	08000048 	stmdaeq	r0, {r3, r6}
  1c:	0000002c 	andeq	r0, r0, ip, lsr #32
  20:	87040e41 	strhi	r0, [r4, -r1, asr #28]
  24:	070d4101 	streq	r4, [sp, -r1, lsl #2]
  28:	410d0d50 	tstmi	sp, r0, asr sp
  2c:	00000ec7 	andeq	r0, r0, r7, asr #29
  30:	0000001c 	andeq	r0, r0, ip, lsl r0
  34:	00000000 	andeq	r0, r0, r0
  38:	08000074 	stmdaeq	r0, {r2, r4, r5, r6}
  3c:	00000038 	andeq	r0, r0, r8, lsr r0
  40:	87040e41 	strhi	r0, [r4, -r1, asr #28]
  44:	070d4101 	streq	r4, [sp, -r1, lsl #2]
  48:	410d0d56 	tstmi	sp, r6, asr sp
  4c:	00000ec7 	andeq	r0, r0, r7, asr #29
  50:	0000001c 	andeq	r0, r0, ip, lsl r0
  54:	00000000 	andeq	r0, r0, r0
  58:	080000ac 	stmdaeq	r0, {r2, r3, r5, r7}
  5c:	00000054 	andeq	r0, r0, r4, asr r0
  60:	87040e41 	strhi	r0, [r4, -r1, asr #28]
  64:	070d4101 	streq	r4, [sp, -r1, lsl #2]
  68:	410d0d64 	tstmi	sp, r4, ror #26
  6c:	00000ec7 	andeq	r0, r0, r7, asr #29
  70:	0000001c 	andeq	r0, r0, ip, lsl r0
  74:	00000000 	andeq	r0, r0, r0
  78:	08000100 	stmdaeq	r0, {r8}
  7c:	00000050 	andeq	r0, r0, r0, asr r0
  80:	87040e41 	strhi	r0, [r4, -r1, asr #28]
  84:	070d4101 	streq	r4, [sp, -r1, lsl #2]
  88:	410d0d62 	tstmi	sp, r2, ror #26
  8c:	00000ec7 	andeq	r0, r0, r7, asr #29
  90:	0000001c 	andeq	r0, r0, ip, lsl r0
  94:	00000000 	andeq	r0, r0, r0
  98:	08000150 	stmdaeq	r0, {r4, r6, r8}
  9c:	00000038 	andeq	r0, r0, r8, lsr r0
  a0:	87040e41 	strhi	r0, [r4, -r1, asr #28]
  a4:	070d4101 	streq	r4, [sp, -r1, lsl #2]
  a8:	410d0d56 	tstmi	sp, r6, asr sp
  ac:	00000ec7 	andeq	r0, r0, r7, asr #29
  b0:	00000018 	andeq	r0, r0, r8, lsl r0
  b4:	00000000 	andeq	r0, r0, r0
  b8:	08000188 	stmdaeq	r0, {r3, r7, r8}
  bc:	0000001c 	andeq	r0, r0, ip, lsl r0
  c0:	87080e41 	strhi	r0, [r8, -r1, asr #28]
  c4:	41018e02 	tstmi	r1, r2, lsl #28
  c8:	0000070d 	andeq	r0, r0, sp, lsl #14
  cc:	00000024 	andeq	r0, r0, r4, lsr #32
  d0:	00000000 	andeq	r0, r0, r0
  d4:	080001a4 	stmdaeq	r0, {r2, r5, r7, r8}
  d8:	00000040 	andeq	r0, r0, r0, asr #32
  dc:	87040e41 	strhi	r0, [r4, -r1, asr #28]
  e0:	100e4101 	andne	r4, lr, r1, lsl #2
  e4:	55070d41 	strpl	r0, [r7, #-3393]	@ 0xfffff2bf
  e8:	0d41040e 	stcleq	4, cr0, [r1, #-56]	@ 0xffffffc8
  ec:	0ec7410d 	cdpeq	1, 12, cr4, cr7, cr13, {0}
  f0:	00000000 	andeq	r0, r0, r0
  f4:	00000024 	andeq	r0, r0, r4, lsr #32
  f8:	00000000 	andeq	r0, r0, r0
  fc:	080001e4 	stmdaeq	r0, {r2, r5, r6, r7, r8}
 100:	00000030 	andeq	r0, r0, r0, lsr r0
 104:	87040e41 	strhi	r0, [r4, -r1, asr #28]
 108:	100e4101 	andne	r4, lr, r1, lsl #2
 10c:	4f070d41 	svcmi	0x00070d41
 110:	0d41040e 	stcleq	4, cr0, [r1, #-56]	@ 0xffffffc8
 114:	0ec7410d 	cdpeq	1, 12, cr4, cr7, cr13, {0}
 118:	00000000 	andeq	r0, r0, r0
 11c:	00000020 	andeq	r0, r0, r0, lsr #32
 120:	00000000 	andeq	r0, r0, r0
 124:	08000214 	stmdaeq	r0, {r2, r4, r9}
 128:	0000002c 	andeq	r0, r0, ip, lsr #32
 12c:	87080e41 	strhi	r0, [r8, -r1, asr #28]
 130:	41018e02 	tstmi	r1, r2, lsl #28
 134:	0d41100e 	stcleq	0, cr1, [r1, #-56]	@ 0xffffffc8
 138:	080e5107 	stmdaeq	lr, {r0, r1, r2, r8, ip, lr}
 13c:	000d0d41 	andeq	r0, sp, r1, asr #26
 140:	0000001c 	andeq	r0, r0, ip, lsl r0
 144:	00000000 	andeq	r0, r0, r0
 148:	08000240 	stmdaeq	r0, {r6, r9}
 14c:	0000002c 	andeq	r0, r0, ip, lsr #32
 150:	87040e41 	strhi	r0, [r4, -r1, asr #28]
 154:	070d4101 	streq	r4, [sp, -r1, lsl #2]
 158:	410d0d4e 	tstmi	sp, lr, asr #26
 15c:	00000ec7 	andeq	r0, r0, r7, asr #29
 160:	00000024 	andeq	r0, r0, r4, lsr #32
 164:	00000000 	andeq	r0, r0, r0
 168:	0800026c 	stmdaeq	r0, {r2, r3, r5, r6, r9}
 16c:	00000024 	andeq	r0, r0, r4, lsr #32
 170:	87040e41 	strhi	r0, [r4, -r1, asr #28]
 174:	100e4101 	andne	r4, lr, r1, lsl #2
 178:	49070d41 	stmdbmi	r7, {r0, r6, r8, sl, fp}
 17c:	0d41040e 	stcleq	4, cr0, [r1, #-56]	@ 0xffffffc8
 180:	0ec7410d 	cdpeq	1, 12, cr4, cr7, cr13, {0}
 184:	00000000 	andeq	r0, r0, r0
 188:	00000018 	andeq	r0, r0, r8, lsl r0
 18c:	00000000 	andeq	r0, r0, r0
 190:	08000290 	stmdaeq	r0, {r4, r7, r9}
 194:	0000000e 	andeq	r0, r0, lr
 198:	87080e41 	strhi	r0, [r8, -r1, asr #28]
 19c:	41018e02 	tstmi	r1, r2, lsl #28
 1a0:	0000070d 	andeq	r0, r0, sp, lsl #14
 1a4:	00000018 	andeq	r0, r0, r8, lsl r0
 1a8:	00000000 	andeq	r0, r0, r0
 1ac:	0800029e 	stmdaeq	r0, {r1, r2, r3, r4, r7, r9}
 1b0:	00000014 	andeq	r0, r0, r4, lsl r0
 1b4:	87080e41 	strhi	r0, [r8, -r1, asr #28]
 1b8:	41018e02 	tstmi	r1, r2, lsl #28
 1bc:	0000070d 	andeq	r0, r0, sp, lsl #14
 1c0:	00000018 	andeq	r0, r0, r8, lsl r0
 1c4:	00000000 	andeq	r0, r0, r0
 1c8:	080002b2 	stmdaeq	r0, {r1, r4, r5, r7, r9}
 1cc:	0000001c 	andeq	r0, r0, ip, lsl r0
 1d0:	87080e41 	strhi	r0, [r8, -r1, asr #28]
 1d4:	41018e02 	tstmi	r1, r2, lsl #28
 1d8:	0000070d 	andeq	r0, r0, sp, lsl #14
